; Function Attrs: mustprogress nounwind uwtable
define internal fastcc i64 @_ZN12_GLOBAL__N_115PseudoOpBuilder20buildRValueOperationEPN5clang4ExprE(ptr noundef nonnull align 8 dereferenceable(80) %0, ptr noundef %1) unnamed_addr #0 align 2 {
  %3 = load ptr, ptr %0, align 8
  %4 = getelementptr inbounds i8, ptr %3, i64 24
  %5 = load ptr, ptr %4, align 8
  %6 = tail call noundef ptr %5(ptr noundef nonnull align 8 dereferenceable(80) %0, ptr noundef %1) #18
  %7 = load ptr, ptr %0, align 8
  %8 = getelementptr inbounds i8, ptr %7, i64 32
  %9 = load ptr, ptr %8, align 8
  %10 = tail call i64 %9(ptr noundef nonnull align 8 dereferenceable(80) %0) #18
  %11 = icmp eq i64 %10, 1
  br i1 %11, label %41, label %12

12:                                               ; preds = %2
  %13 = and i64 %10, -2
  %14 = getelementptr inbounds nuw i8, ptr %0, i64 32
  %15 = tail call noundef i64 @_ZNK4llvm15SmallVectorBaseIjE4sizeEv(ptr noundef nonnull align 8 dereferenceable(16) %14) #18
  %16 = trunc i64 %15 to i32
  %17 = getelementptr inbounds nuw i8, ptr %0, i64 16
  store i32 %16, ptr %17, align 8
  %18 = tail call noundef i64 @_ZNK4llvm15SmallVectorBaseIjE4sizeEv(ptr noundef nonnull align 8 dereferenceable(16) %14) #18
  %19 = add i64 %18, 1
  %20 = tail call noundef i64 @_ZNK4llvm15SmallVectorBaseIjE8capacityEv(ptr noundef nonnull align 8 dereferenceable(16) %14) #18
  %.not.i.i.i.i = icmp ugt i64 %19, %20
  br i1 %.not.i.i.i.i, label %21, label %_ZN4llvm23SmallVectorTemplateBaseIPN5clang4ExprELb1EE9push_backES3_.exit.i

21:                                               ; preds = %12
  %22 = getelementptr inbounds i8, ptr %0, i64 48
  tail call void @_ZN4llvm15SmallVectorBaseIjE8grow_podEPvmm(ptr noundef nonnull align 8 dereferenceable(16) %14, ptr noundef nonnull %22, i64 noundef %19, i64 noundef 8) #18
  br label %_ZN4llvm23SmallVectorTemplateBaseIPN5clang4ExprELb1EE9push_backES3_.exit.i

_ZN4llvm23SmallVectorTemplateBaseIPN5clang4ExprELb1EE9push_backES3_.exit.i: ; preds = %21, %12
  %23 = load ptr, ptr %14, align 8
  %24 = tail call noundef i64 @_ZNK4llvm15SmallVectorBaseIjE4sizeEv(ptr noundef nonnull align 8 dereferenceable(16) %14) #18
  %25 = getelementptr inbounds ptr, ptr %23, i64 %24
  store i64 %13, ptr %25, align 1
  %26 = tail call noundef i64 @_ZNK4llvm15SmallVectorBaseIjE4sizeEv(ptr noundef nonnull align 8 dereferenceable(16) %14) #18
  %27 = add i64 %26, 1
  tail call void @_ZN4llvm15SmallVectorBaseIjE8set_sizeEm(ptr noundef nonnull align 8 dereferenceable(16) %14, i64 noundef %27) #18
  %28 = load ptr, ptr %14, align 8
  %29 = tail call noundef i64 @_ZNK4llvm15SmallVectorBaseIjE4sizeEv(ptr noundef nonnull align 8 dereferenceable(16) %14) #18
  %30 = getelementptr inbounds ptr, ptr %28, i64 %29
  %31 = getelementptr inbounds i8, ptr %30, i64 -8
  %32 = load ptr, ptr %31, align 8
  %33 = load i8, ptr %32, align 8
  %.not.i = icmp eq i8 %33, 26
  br i1 %.not.i, label %34, label %_ZN12_GLOBAL__N_115PseudoOpBuilder21addResultSemanticExprEPN5clang4ExprE.exit

34:                                               ; preds = %_ZN4llvm23SmallVectorTemplateBaseIPN5clang4ExprELb1EE9push_backES3_.exit.i
  %35 = load i32, ptr %32, align 8
  %36 = and i32 %35, -262145
  store i32 %36, ptr %32, align 8
  br label %_ZN12_GLOBAL__N_115PseudoOpBuilder21addResultSemanticExprEPN5clang4ExprE.exit

_ZN12_GLOBAL__N_115PseudoOpBuilder21addResultSemanticExprEPN5clang4ExprE.exit: ; preds = %_ZN4llvm23SmallVectorTemplateBaseIPN5clang4ExprELb1EE9push_backES3_.exit.i, %34
  %37 = load ptr, ptr %0, align 8
  %38 = getelementptr inbounds i8, ptr %37, i64 16
  %39 = load ptr, ptr %38, align 8
  %40 = tail call i64 %39(ptr noundef nonnull align 8 dereferenceable(80) %0, ptr noundef %6) #18
  br label %41

41:                                               ; preds = %2, %_ZN12_GLOBAL__N_115PseudoOpBuilder21addResultSemanticExprEPN5clang4ExprE.exit
  %.sroa.0.0 = phi i64 [ %40, %_ZN12_GLOBAL__N_115PseudoOpBuilder21addResultSemanticExprEPN5clang4ExprE.exit ], [ 1, %2 ]
  ret i64 %.sroa.0.0
}